target datalayout = "e-m:e-p270:32:32-p271:32:32-p272:64:64-i64:64-i128:128-f80:128-n8:16:32:64-S128"
target triple = "x86_64-pc-linux-gnu"

@.str.22 = private unnamed_addr constant [6 x i8] c"acl.c\00", align 1
@Users = dso_local global ptr null, align 8
@.str.38 = private unnamed_addr constant [16 x i8] c"__fakeuser:%d__\00", align 1
@.str.39 = private unnamed_addr constant [12 x i8] c"retval != 0\00", align 1

; Function Attrs: nounwind uwtable
define dso_local ptr @ACLCreateUnlinkedUser() #0 {
  %1 = alloca ptr, align 8
  %2 = alloca [64 x i8], align 16
  %3 = alloca i32, align 4
  %4 = alloca ptr, align 8
  %5 = alloca i32, align 4
  %6 = alloca i32, align 4
  call void @llvm.lifetime.start.p0(i64 64, ptr %2) #14
  call void @llvm.lifetime.start.p0(i64 4, ptr %3) #14
  store i32 0, ptr %3, align 4, !tbaa !17
  br label %7

7:                                                ; preds = %39, %0
  %8 = getelementptr inbounds [64 x i8], ptr %2, i64 0, i64 0
  %9 = load i32, ptr %3, align 4, !tbaa !17
  %10 = call i32 (ptr, i64, ptr, ...) @snprintf(ptr noundef %8, i64 noundef 64, ptr noundef @.str.38, i32 noundef %9) #14
  call void @llvm.lifetime.start.p0(i64 8, ptr %4) #14
  %11 = getelementptr inbounds [64 x i8], ptr %2, i64 0, i64 0
  %12 = getelementptr inbounds [64 x i8], ptr %2, i64 0, i64 0
  %13 = call i64 @strlen(ptr noundef %12) #17
  %14 = call ptr @ACLCreateUser(ptr noundef %11, i64 noundef %13)
  store ptr %14, ptr %4, align 8, !tbaa !32
  %15 = load ptr, ptr %4, align 8, !tbaa !32
  %16 = icmp eq ptr %15, null
  br i1 %16, label %17, label %18

17:                                               ; preds = %7
  store i32 4, ptr %5, align 4
  br label %37

18:                                               ; preds = %7
  call void @llvm.lifetime.start.p0(i64 4, ptr %6) #14
  %19 = load ptr, ptr @Users, align 8, !tbaa !88
  %20 = getelementptr inbounds [64 x i8], ptr %2, i64 0, i64 0
  %21 = getelementptr inbounds [64 x i8], ptr %2, i64 0, i64 0
  %22 = call i64 @strlen(ptr noundef %21) #17
  %23 = call i32 @raxRemove(ptr noundef %19, ptr noundef %20, i64 noundef %22, ptr noundef null)
  store i32 %23, ptr %6, align 4, !tbaa !17
  %24 = load i32, ptr %6, align 4, !tbaa !17
  %25 = icmp ne i32 %24, 0
  %26 = xor i1 %25, true
  %27 = xor i1 %26, true
  %28 = zext i1 %27 to i32
  %29 = sext i32 %28 to i64
  %30 = call i64 @llvm.expect.i64(i64 %29, i64 1)
  %31 = icmp ne i64 %30, 0
  br i1 %31, label %32, label %33

32:                                               ; preds = %18
  br label %35

33:                                               ; preds = %18
  call void @_serverAssert(ptr noundef @.str.39, ptr noundef @.str.22, i32 noundef 455)
  call void @abort() #15
  unreachable

34:                                               ; No predecessors!
  br label %35

35:                                               ; preds = %34, %32
  %36 = load ptr, ptr %4, align 8, !tbaa !32
  store ptr %36, ptr %1, align 8
  store i32 1, ptr %5, align 4
  call void @llvm.lifetime.end.p0(i64 4, ptr %6) #14
  br label %37

37:                                               ; preds = %35, %17
  call void @llvm.lifetime.end.p0(i64 8, ptr %4) #14
  %38 = load i32, ptr %5, align 4
  switch i32 %38, label %42 [
    i32 4, label %39
  ]

39:                                               ; preds = %37
  %40 = load i32, ptr %3, align 4, !tbaa !17
  %41 = add nsw i32 %40, 1
  store i32 %41, ptr %3, align 4, !tbaa !17
  br label %7

42:                                               ; preds = %37
  call void @llvm.lifetime.end.p0(i64 4, ptr %3) #14
  call void @llvm.lifetime.end.p0(i64 64, ptr %2) #14
  %43 = load ptr, ptr %1, align 8
  ret ptr %43
}