; Function Attrs: nounwind uwtable
define dso_local noundef ptr @ACLCreateUnlinkedUser() local_unnamed_addr #0 {
  %1 = alloca [64 x i8], align 16
  call void @llvm.lifetime.start.p0(i64 64, ptr nonnull %1) #25
  br label %2

2:                                                ; preds = %2, %0
  %.07 = phi i32 [ 0, %0 ], [ %7, %2 ]
  %3 = call i32 (ptr, i64, ptr, ...) @snprintf(ptr noundef nonnull dereferenceable(1) %1, i64 noundef 64, ptr noundef nonnull @.str.38, i32 noundef %.07) #25
  %4 = call i64 @strlen(ptr noundef nonnull dereferenceable(1) %1) #29
  %5 = call ptr @ACLCreateUser(ptr noundef nonnull %1, i64 noundef %4)
  %6 = icmp eq ptr %5, null
  %7 = add nuw nsw i32 %.07, 1
  br i1 %6, label %2, label %8

8:                                                ; preds = %2
  %9 = load ptr, ptr @Users, align 8, !tbaa !87
  %10 = call i64 @strlen(ptr noundef nonnull dereferenceable(1) %1) #29
  %11 = call i32 @raxRemove(ptr noundef %9, ptr noundef nonnull %1, i64 noundef %10, ptr noundef null) #25
  %.not = icmp eq i32 %11, 0
  br i1 %.not, label %12, label %13, !prof !83

12:                                               ; preds = %8
  call void @_serverAssert(ptr noundef nonnull @.str.39, ptr noundef nonnull @.str.22, i32 noundef 455) #25
  call void @abort() #27
  unreachable

13:                                               ; preds = %8
  call void @llvm.lifetime.end.p0(i64 64, ptr nonnull %1) #25
  ret ptr %5
}